; ModuleID = 'source-C-CXX/61/152.c'
source_filename = "source-C-CXX/61/152.c"
target datalayout = "e-m:e-p270:32:32-p271:32:32-p272:64:64-i64:64-f80:128-n8:16:32:64-S128"
target triple = "x86_64-pc-linux-gnu"

; Function Attrs: nounwind sspstrong uwtable
define dso_local i32 @main() local_unnamed_addr #0 {
  %1 = alloca [300 x i8], align 16
  %2 = getelementptr inbounds [300 x i8], [300 x i8]* %1, i64 0, i64 0
  call void @llvm.lifetime.start.p0i8(i64 300, i8* nonnull %2) #5
  call void @llvm.memset.p0i8.i64(i8* noundef nonnull align 16 dereferenceable(300) %2, i8 0, i64 300, i1 false)
  %3 = call i32 (i8*, ...) bitcast (i32 (...)* @gets to i32 (i8*, ...)*)(i8* nonnull %2) #5
  br label %4

4:                                                ; preds = %0, %17
  %5 = phi i64 [ 0, %0 ], [ %19, %17 ]
  %6 = phi i32 [ undef, %0 ], [ %18, %17 ]
  %7 = getelementptr inbounds [300 x i8], [300 x i8]* %1, i64 0, i64 %5
  %8 = load i8, i8* %7, align 1, !tbaa !5
  switch i8 %8, label %9 [
    i8 0, label %21
    i8 32, label %11
  ]

9:                                                ; preds = %4
  %10 = sext i8 %8 to i32
  br label %13

11:                                               ; preds = %4
  %12 = icmp eq i32 %6, 0
  br i1 %12, label %13, label %17

13:                                               ; preds = %11, %9
  %14 = phi i32 [ %10, %9 ], [ 32, %11 ]
  %15 = phi i32 [ 0, %9 ], [ 1, %11 ]
  %16 = call i32 @putchar(i32 %14)
  br label %17

17:                                               ; preds = %13, %11
  %18 = phi i32 [ %6, %11 ], [ %15, %13 ]
  %19 = add nuw nsw i64 %5, 1
  %20 = icmp eq i64 %19, 300
  br i1 %20, label %21, label %4, !llvm.loop !8

21:                                               ; preds = %4, %17
  call void @llvm.lifetime.end.p0i8(i64 300, i8* nonnull %2) #5
  ret i32 0
}

; Function Attrs: argmemonly mustprogress nofree nosync nounwind willreturn
declare void @llvm.lifetime.start.p0i8(i64 immarg, i8* nocapture) #1

; Function Attrs: argmemonly mustprogress nofree nounwind willreturn writeonly
declare void @llvm.memset.p0i8.i64(i8* nocapture writeonly, i8, i64, i1 immarg) #2

declare i32 @gets(...) local_unnamed_addr #3

; Function Attrs: argmemonly mustprogress nofree nosync nounwind willreturn
declare void @llvm.lifetime.end.p0i8(i64 immarg, i8* nocapture) #1

; Function Attrs: nofree nounwind
declare noundef i32 @putchar(i32 noundef) local_unnamed_addr #4


!llvm.module.flags = !{!0, !1, !2, !3}
!llvm.ident = !{!4}

!0 = !{i32 1, !"wchar_size", i32 4}
!1 = !{i32 7, !"PIC Level", i32 2}
!2 = !{i32 7, !"PIE Level", i32 2}
!3 = !{i32 7, !"uwtable", i32 1}
!4 = !{!"clang version 13.0.0"}
!5 = !{!6, !6, i64 0}
!6 = !{!"omnipotent char", !7, i64 0}
!7 = !{!"Simple C/C++ TBAA"}
!8 = distinct !{!8, !9}
!9 = !{!"llvm.loop.mustprogress"}
